; Function Attrs: nounwind sspstrong uwtable
define internal noundef zeroext i1 @qobject_input_start_list(ptr noundef captures(none) %v, ptr noundef %name, ptr noundef %list, i64 noundef %size, ptr noundef %errp) #0 {
entry:
  %call.i = tail call fastcc ptr @qobject_input_try_get_object(ptr noundef %v, ptr noundef %name, i1 noundef zeroext true)
  %tobool1.not.i = icmp eq ptr %call.i, null
  br i1 %tobool1.not.i, label %if.then.i, label %qobject_input_get_object.exit

if.then.i:                                        ; preds = %entry
  %call.i.i = tail call fastcc ptr @full_name_nth(ptr noundef %v, ptr noundef %name, i32 noundef 0)
  tail call void (ptr, ptr, i32, ptr, ptr, ...) @error_setg_internal(ptr noundef %errp, ptr noundef nonnull @.str.1, i32 noundef 171, ptr noundef nonnull @__func__.qobject_input_get_object, ptr noundef nonnull @.str.5, ptr noundef %call.i.i) #8
  br label %qobject_input_get_object.exit

qobject_input_get_object.exit:                    ; preds = %entry, %if.then.i
  %tobool = icmp ne ptr %list, null
  br i1 %tobool, label %if.then, label %if.end

if.then:                                          ; preds = %qobject_input_get_object.exit
  store ptr null, ptr %list, align 8
  br label %if.end

if.end:                                           ; preds = %if.then, %qobject_input_get_object.exit
  br i1 %tobool1.not.i, label %return, label %if.end5

if.end5:                                          ; preds = %if.end
  %call1.val = load i32, ptr %call.i, align 8
  %0 = add i32 %call1.val, -1
  %or.cond.i = icmp ult i32 %0, 6
  br i1 %or.cond.i, label %qobject_type.exit, label %if.else.i

if.else.i:                                        ; preds = %if.end5
  tail call void @__assert_fail(ptr noundef nonnull @.str.12, ptr noundef nonnull @.str.13, i32 noundef 126, ptr noundef nonnull @__PRETTY_FUNCTION__.qobject_type) #7
  unreachable

qobject_type.exit:                                ; preds = %if.end5
  %cmp.not = icmp eq i32 %call1.val, 5
  br i1 %cmp.not, label %if.end9, label %if.then7

if.then7:                                         ; preds = %qobject_type.exit
  %call.i12 = tail call fastcc ptr @full_name_nth(ptr noundef %v, ptr noundef %name, i32 noundef 0)
  tail call void (ptr, ptr, i32, ptr, ptr, ...) @error_setg_internal(ptr noundef %errp, ptr noundef nonnull @.str.1, i32 noundef 330, ptr noundef nonnull @__func__.qobject_input_start_list, ptr noundef nonnull @.str.3, ptr noundef %call.i12, ptr noundef nonnull @.str.24) #8
  br label %return

if.end9:                                          ; preds = %qobject_type.exit
  %call10 = tail call fastcc ptr @qobject_input_push(ptr noundef %v, ptr noundef %name, ptr noundef %call.i, ptr noundef %list)
  %tobool11 = icmp ne ptr %call10, null
  %or.cond = and i1 %tobool, %tobool11
  br i1 %or.cond, label %if.then13, label %return

if.then13:                                        ; preds = %if.end9
  %call14 = tail call noalias ptr @g_malloc0(i64 noundef %size) #6
  store ptr %call14, ptr %list, align 8
  br label %return

return:                                           ; preds = %if.end9, %if.then13, %if.end, %if.then7
  %retval.0 = phi i1 [ false, %if.then7 ], [ false, %if.end ], [ true, %if.then13 ], [ true, %if.end9 ]
  ret i1 %retval.0
}